; Function Attrs: mustprogress uwtable
define void @_ZN3nix21makeStorePathAccessorENS_3refINS_5StoreEEERKNS_9StorePathE(ptr dead_on_unwind noalias writable sret(%"class.nix::ref") align 8 %0, ptr nocapture noundef readonly %1, ptr noundef nonnull align 8 dereferenceable(32) %2) local_unnamed_addr #4 personality ptr @__gxx_personality_v0 {
  %4 = alloca %"class.std::__cxx11::basic_string", align 8
  %5 = alloca %"class.std::filesystem::__cxx11::path", align 8
  %6 = alloca %"class.std::__cxx11::basic_string", align 8
  %7 = load ptr, ptr %1, align 8
  call void @llvm.lifetime.start.p0(i64 32, ptr nonnull %4)
  %8 = load ptr, ptr %7, align 8, !noalias !16
  %9 = getelementptr i8, ptr %8, i64 -24
  %10 = load i64, ptr %9, align 8, !noalias !16
  %11 = getelementptr inbounds i8, ptr %7, i64 %10
  call void @_ZNK3nix14StoreDirConfig14printStorePathB5cxx11ERKNS_9StorePathE(ptr dead_on_unwind nonnull writable sret(%"class.std::__cxx11::basic_string") align 8 %4, ptr noundef nonnull align 8 dereferenceable(344) %11, ptr noundef nonnull align 8 dereferenceable(32) %2), !noalias !16
  %12 = load ptr, ptr %7, align 8, !noalias !16
  %13 = getelementptr inbounds i8, ptr %12, i64 336
  %14 = load ptr, ptr %13, align 8, !noalias !16
  invoke void %14(ptr dead_on_unwind nonnull writable sret(%"class.std::__cxx11::basic_string") align 8 %6, ptr noundef nonnull align 8 dereferenceable(264) %7, ptr noundef nonnull align 8 dereferenceable(32) %4)
          to label %15 unwind label %22

15:                                               ; preds = %3
  %16 = load ptr, ptr %4, align 8, !noalias !16
  %17 = getelementptr inbounds i8, ptr %4, i64 16
  %18 = icmp eq ptr %16, %17
  br i1 %18, label %_ZNKSt7__cxx1112basic_stringIcSt11char_traitsIcESaIcEE11_M_is_localEv.exit.thread.i.i.i, label %_ZNKSt7__cxx1112basic_stringIcSt11char_traitsIcESaIcEE11_M_is_localEv.exit.i.i.i

_ZNKSt7__cxx1112basic_stringIcSt11char_traitsIcESaIcEE11_M_is_localEv.exit.thread.i.i.i: ; preds = %15
  %19 = getelementptr inbounds i8, ptr %4, i64 8
  %20 = load i64, ptr %19, align 8, !noalias !16
  %21 = icmp ult i64 %20, 16
  call void @llvm.assume(i1 %21)
  br label %_ZN3nix5Store10toRealPathB5cxx11ERKNS_9StorePathE.exit

_ZNKSt7__cxx1112basic_stringIcSt11char_traitsIcESaIcEE11_M_is_localEv.exit.i.i.i: ; preds = %15
  call void @_ZdlPv(ptr noundef %16) #19
  br label %_ZN3nix5Store10toRealPathB5cxx11ERKNS_9StorePathE.exit

common.resume:                                    ; preds = %41, %43, %22
  %.sink = phi ptr [ %4, %22 ], [ %6, %43 ], [ %6, %41 ]
  %common.resume.op = phi { ptr, i32 } [ %23, %22 ], [ %44, %43 ], [ %42, %41 ]
  call void @_ZNSt7__cxx1112basic_stringIcSt11char_traitsIcESaIcEED2Ev(ptr noundef nonnull align 8 dereferenceable(32) %.sink) #17
  resume { ptr, i32 } %common.resume.op

22:                                               ; preds = %3
  %23 = landingpad { ptr, i32 }
          cleanup
  br label %common.resume

_ZN3nix5Store10toRealPathB5cxx11ERKNS_9StorePathE.exit: ; preds = %_ZNKSt7__cxx1112basic_stringIcSt11char_traitsIcESaIcEE11_M_is_localEv.exit.thread.i.i.i, %_ZNKSt7__cxx1112basic_stringIcSt11char_traitsIcESaIcEE11_M_is_localEv.exit.i.i.i
  call void @_ZNSaIcED2Ev(ptr noundef nonnull align 1 dereferenceable(1) %4) #17
  call void @llvm.lifetime.end.p0(i64 32, ptr nonnull %4)
  invoke void @_ZNSt10filesystem7__cxx114pathC2EONSt7__cxx1112basic_stringIcSt11char_traitsIcESaIcEEENS1_6formatE(ptr noundef nonnull align 8 dereferenceable(40) %5, ptr noundef nonnull align 8 dereferenceable(32) %6, i8 noundef zeroext 2)
          to label %24 unwind label %41

24:                                               ; preds = %_ZN3nix5Store10toRealPathB5cxx11ERKNS_9StorePathE.exit
  invoke void @_ZN3nix19makeFSInputAccessorENSt10filesystem7__cxx114pathE(ptr dead_on_unwind writable sret(%"class.nix::ref") align 8 %0, ptr noundef nonnull %5)
          to label %25 unwind label %43

25:                                               ; preds = %24
  %26 = getelementptr inbounds i8, ptr %5, i64 32
  %27 = load ptr, ptr %26, align 8
  %.not.i.i.i = icmp eq ptr %27, null
  br i1 %.not.i.i.i, label %_ZNSt10filesystem7__cxx114path5_ListD2Ev.exit.i, label %28

28:                                               ; preds = %25
  call void @_ZNKSt10filesystem7__cxx114path5_List13_Impl_deleterclEPNS2_5_ImplE(ptr noundef nonnull align 1 dereferenceable(1) %26, ptr noundef nonnull %27) #17
  br label %_ZNSt10filesystem7__cxx114path5_ListD2Ev.exit.i

_ZNSt10filesystem7__cxx114path5_ListD2Ev.exit.i:  ; preds = %28, %25
  store ptr null, ptr %26, align 8
  %29 = load ptr, ptr %5, align 8
  %30 = getelementptr inbounds i8, ptr %5, i64 16
  %31 = icmp eq ptr %29, %30
  br i1 %31, label %_ZNKSt7__cxx1112basic_stringIcSt11char_traitsIcESaIcEE11_M_is_localEv.exit.thread.i.i.i5, label %_ZNKSt7__cxx1112basic_stringIcSt11char_traitsIcESaIcEE11_M_is_localEv.exit.i.i.i4

_ZNKSt7__cxx1112basic_stringIcSt11char_traitsIcESaIcEE11_M_is_localEv.exit.thread.i.i.i5: ; preds = %_ZNSt10filesystem7__cxx114path5_ListD2Ev.exit.i
  %32 = getelementptr inbounds i8, ptr %5, i64 8
  %33 = load i64, ptr %32, align 8
  %34 = icmp ult i64 %33, 16
  call void @llvm.assume(i1 %34)
  br label %_ZNSt10filesystem7__cxx114pathD2Ev.exit

_ZNKSt7__cxx1112basic_stringIcSt11char_traitsIcESaIcEE11_M_is_localEv.exit.i.i.i4: ; preds = %_ZNSt10filesystem7__cxx114path5_ListD2Ev.exit.i
  call void @_ZdlPv(ptr noundef %29) #19
  br label %_ZNSt10filesystem7__cxx114pathD2Ev.exit

_ZNSt10filesystem7__cxx114pathD2Ev.exit:          ; preds = %_ZNKSt7__cxx1112basic_stringIcSt11char_traitsIcESaIcEE11_M_is_localEv.exit.thread.i.i.i5, %_ZNKSt7__cxx1112basic_stringIcSt11char_traitsIcESaIcEE11_M_is_localEv.exit.i.i.i4
  call void @_ZNSaIcED2Ev(ptr noundef nonnull align 1 dereferenceable(1) %5) #17
  %35 = load ptr, ptr %6, align 8
  %36 = getelementptr inbounds i8, ptr %6, i64 16
  %37 = icmp eq ptr %35, %36
  br i1 %37, label %_ZNKSt7__cxx1112basic_stringIcSt11char_traitsIcESaIcEE11_M_is_localEv.exit.thread.i.i, label %_ZNKSt7__cxx1112basic_stringIcSt11char_traitsIcESaIcEE11_M_is_localEv.exit.i.i

_ZNKSt7__cxx1112basic_stringIcSt11char_traitsIcESaIcEE11_M_is_localEv.exit.thread.i.i: ; preds = %_ZNSt10filesystem7__cxx114pathD2Ev.exit
  %38 = getelementptr inbounds i8, ptr %6, i64 8
  %39 = load i64, ptr %38, align 8
  %40 = icmp ult i64 %39, 16
  call void @llvm.assume(i1 %40)
  br label %_ZNSt7__cxx1112basic_stringIcSt11char_traitsIcESaIcEED2Ev.exit

_ZNKSt7__cxx1112basic_stringIcSt11char_traitsIcESaIcEE11_M_is_localEv.exit.i.i: ; preds = %_ZNSt10filesystem7__cxx114pathD2Ev.exit
  call void @_ZdlPv(ptr noundef %35) #19
  br label %_ZNSt7__cxx1112basic_stringIcSt11char_traitsIcESaIcEED2Ev.exit

_ZNSt7__cxx1112basic_stringIcSt11char_traitsIcESaIcEED2Ev.exit: ; preds = %_ZNKSt7__cxx1112basic_stringIcSt11char_traitsIcESaIcEE11_M_is_localEv.exit.thread.i.i, %_ZNKSt7__cxx1112basic_stringIcSt11char_traitsIcESaIcEE11_M_is_localEv.exit.i.i
  call void @_ZNSaIcED2Ev(ptr noundef nonnull align 1 dereferenceable(1) %6) #17
  ret void

41:                                               ; preds = %_ZN3nix5Store10toRealPathB5cxx11ERKNS_9StorePathE.exit
  %42 = landingpad { ptr, i32 }
          cleanup
  br label %common.resume

43:                                               ; preds = %24
  %44 = landingpad { ptr, i32 }
          cleanup
  call void @_ZNSt10filesystem7__cxx114pathD2Ev(ptr noundef nonnull align 8 dereferenceable(40) %5) #17
  br label %common.resume
}